; Function Attrs: nounwind uwtable
define dso_local void @dropDatabaseDependencies(i32 noundef %0) local_unnamed_addr #0 {
  %2 = alloca [1 x %struct.ScanKeyData], align 16
  call void @llvm.lifetime.start.p0(i64 72, ptr nonnull %2) #8
  %3 = tail call ptr @table_open(i32 noundef 1214, i32 noundef 3) #8
  %4 = zext i32 %0 to i64
  call void @ScanKeyInit(ptr noundef nonnull %2, i16 noundef signext 1, i16 noundef zeroext 3, i32 noundef 184, i64 noundef %4) #8
  %5 = call ptr @systable_beginscan(ptr noundef %3, i32 noundef 1232, i1 noundef zeroext true, ptr noundef null, i32 noundef 1, ptr noundef nonnull %2) #8
  %6 = call ptr @systable_getnext(ptr noundef %5) #8
  %.not8 = icmp eq ptr %6, null
  br i1 %.not8, label %._crit_edge, label %.lr.ph

.lr.ph:                                           ; preds = %1, %.lr.ph
  %7 = phi ptr [ %9, %.lr.ph ], [ %6, %1 ]
  %8 = getelementptr inbounds nuw i8, ptr %7, i64 4
  call void @CatalogTupleDelete(ptr noundef %3, ptr noundef nonnull %8) #8
  %9 = call ptr @systable_getnext(ptr noundef %5) #8
  %.not = icmp eq ptr %9, null
  br i1 %.not, label %._crit_edge, label %.lr.ph, !llvm.loop !16

._crit_edge:                                      ; preds = %.lr.ph, %1
  call void @systable_endscan(ptr noundef %5) #8
  call fastcc void @shdepDropDependency(ptr noundef %3, i32 noundef 1262, i32 noundef %0, i32 noundef 0, i1 noundef zeroext true, i32 noundef 0, i32 noundef 0, i32 noundef 0)
  call void @table_close(ptr noundef %3, i32 noundef 3) #8
  call void @llvm.lifetime.end.p0(i64 72, ptr nonnull %2) #8
  ret void
}